target datalayout = "e-m:e-p270:32:32-p271:32:32-p272:64:64-i64:64-i128:128-f80:128-n8:16:32:64-S128"
target triple = "x86_64-pc-linux-gnu"

%"class.cv::Mat" = type { i32, i32, i32, i32, ptr, ptr, ptr, ptr, ptr, ptr, %"struct.cv::MatSize", %"struct.cv::MatStep" }
%"struct.cv::MatSize" = type { ptr }
%"struct.cv::MatStep" = type { ptr, [2 x i64] }
%"class.std::vector" = type { %"struct.std::_Vector_base" }
%"struct.std::_Vector_base" = type { %"struct.std::_Vector_base<cv::Mat, std::allocator<cv::Mat>>::_Vector_impl" }
%"struct.std::_Vector_base<cv::Mat, std::allocator<cv::Mat>>::_Vector_impl" = type { %"struct.std::_Vector_base<cv::Mat, std::allocator<cv::Mat>>::_Vector_impl_data" }
%"struct.std::_Vector_base<cv::Mat, std::allocator<cv::Mat>>::_Vector_impl_data" = type { ptr, ptr, ptr }
%"class.cv::Algorithm" = type { ptr }
%"class.std::__cxx11::basic_string" = type { %"struct.std::__cxx11::basic_string<char>::_Alloc_hider", i64, %union.anon }
%"struct.std::__cxx11::basic_string<char>::_Alloc_hider" = type { ptr }
%union.anon = type { i64, [8 x i8] }
%"class.std::__shared_count" = type { ptr }
%"class.std::vector.11" = type { %"struct.std::_Vector_base.12" }
%"struct.std::_Vector_base.12" = type { %"struct.std::_Vector_base<cv::Ptr<cv::ximgproc::segmentation::SelectiveSearchSegmentationStrategy>, std::allocator<cv::Ptr<cv::ximgproc::segmentation::SelectiveSearchSegmentationStrategy>>>::_Vector_impl" }
%"struct.std::_Vector_base<cv::Ptr<cv::ximgproc::segmentation::SelectiveSearchSegmentationStrategy>, std::allocator<cv::Ptr<cv::ximgproc::segmentation::SelectiveSearchSegmentationStrategy>>>::_Vector_impl" = type { %"struct.std::_Vector_base<cv::Ptr<cv::ximgproc::segmentation::SelectiveSearchSegmentationStrategy>, std::allocator<cv::Ptr<cv::ximgproc::segmentation::SelectiveSearchSegmentationStrategy>>>::_Vector_impl_data" }
%"struct.std::_Vector_base<cv::Ptr<cv::ximgproc::segmentation::SelectiveSearchSegmentationStrategy>, std::allocator<cv::Ptr<cv::ximgproc::segmentation::SelectiveSearchSegmentationStrategy>>>::_Vector_impl_data" = type { ptr, ptr, ptr }
%"class.__gnu_cxx::__normal_iterator.92" = type { ptr }
%"struct.cv::Ptr.7" = type { %"class.std::shared_ptr.8" }
%"class.std::shared_ptr.8" = type { %"class.std::__shared_ptr.9" }
%"class.std::__shared_ptr.9" = type { ptr, %"class.std::__shared_count" }
%"class.cv::ximgproc::segmentation::SelectiveSearchSegmentationImpl" = type { %"class.cv::ximgproc::segmentation::SelectiveSearchSegmentation", %"class.std::__cxx11::basic_string", %"class.cv::Mat", %"class.std::vector", %"class.std::vector.76", %"class.std::vector.11" }
%"class.cv::ximgproc::segmentation::SelectiveSearchSegmentation" = type { %"class.cv::Algorithm" }
%"class.std::vector.76" = type { %"struct.std::_Vector_base.77" }
%"struct.std::_Vector_base.77" = type { %"struct.std::_Vector_base<cv::Ptr<cv::ximgproc::segmentation::GraphSegmentation>, std::allocator<cv::Ptr<cv::ximgproc::segmentation::GraphSegmentation>>>::_Vector_impl" }
%"struct.std::_Vector_base<cv::Ptr<cv::ximgproc::segmentation::GraphSegmentation>, std::allocator<cv::Ptr<cv::ximgproc::segmentation::GraphSegmentation>>>::_Vector_impl" = type { %"struct.std::_Vector_base<cv::Ptr<cv::ximgproc::segmentation::GraphSegmentation>, std::allocator<cv::Ptr<cv::ximgproc::segmentation::GraphSegmentation>>>::_Vector_impl_data" }
%"struct.std::_Vector_base<cv::Ptr<cv::ximgproc::segmentation::GraphSegmentation>, std::allocator<cv::Ptr<cv::ximgproc::segmentation::GraphSegmentation>>>::_Vector_impl_data" = type { ptr, ptr, ptr }
%"class.std::_Sp_counted_base" = type { ptr, i32, i32 }

@__libc_single_threaded = external global i8, align 1

; Function Attrs: alwaysinline mustprogress nounwind uwtable
define linkonce_odr void @_ZN9__gnu_cxx12__atomic_addEPVii(ptr noundef %0, i32 noundef %1) #17 comdat {
  %3 = alloca ptr, align 8
  %4 = alloca i32, align 4
  %5 = alloca i32, align 4
  %6 = alloca i32, align 4
  store ptr %0, ptr %3, align 8, !tbaa !136
  store i32 %1, ptr %4, align 4, !tbaa !10
  %7 = load ptr, ptr %3, align 8, !tbaa !136
  %8 = load i32, ptr %4, align 4, !tbaa !10
  store i32 %8, ptr %5, align 4, !tbaa !10
  %9 = load i32, ptr %5, align 4
  %10 = atomicrmw volatile add ptr %7, i32 %9 acq_rel, align 4
  store i32 %10, ptr %6, align 4
  ret void
}

; Function Attrs: alwaysinline mustprogress nounwind uwtable
define linkonce_odr void @_ZN9__gnu_cxx19__atomic_add_singleEPii(ptr noundef %0, i32 noundef %1) #17 comdat {
  %3 = alloca ptr, align 8
  %4 = alloca i32, align 4
  store ptr %0, ptr %3, align 8, !tbaa !136
  store i32 %1, ptr %4, align 4, !tbaa !10
  %5 = load i32, ptr %4, align 4, !tbaa !10
  %6 = load ptr, ptr %3, align 8, !tbaa !136
  %7 = load i32, ptr %6, align 4, !tbaa !10
  %8 = add nsw i32 %7, %5
  store i32 %8, ptr %6, align 4, !tbaa !10
  ret void
}

; Function Attrs: alwaysinline mustprogress nounwind uwtable
define linkonce_odr noundef zeroext i1 @_ZN9__gnu_cxx20__is_single_threadedEv() #17 comdat {
  %1 = load i8, ptr @__libc_single_threaded, align 1, !tbaa !178
  %2 = icmp ne i8 %1, 0
  ret i1 %2
}

; Function Attrs: alwaysinline mustprogress uwtable
define linkonce_odr void @_ZN9__gnu_cxx21__atomic_add_dispatchEPii(ptr noundef %0, i32 noundef %1) #13 comdat {
  %3 = alloca ptr, align 8
  %4 = alloca i32, align 4
  store ptr %0, ptr %3, align 8, !tbaa !136
  store i32 %1, ptr %4, align 4, !tbaa !10
  %5 = call noundef zeroext i1 @_ZN9__gnu_cxx20__is_single_threadedEv() #3
  br i1 %5, label %6, label %9

6:                                                ; preds = %2
  %7 = load ptr, ptr %3, align 8, !tbaa !136
  %8 = load i32, ptr %4, align 4, !tbaa !10
  call void @_ZN9__gnu_cxx19__atomic_add_singleEPii(ptr noundef %7, i32 noundef %8)
  br label %12

9:                                                ; preds = %2
  %10 = load ptr, ptr %3, align 8, !tbaa !136
  %11 = load i32, ptr %4, align 4, !tbaa !10
  call void @_ZN9__gnu_cxx12__atomic_addEPVii(ptr noundef %10, i32 noundef %11)
  br label %12

12:                                               ; preds = %9, %6
  ret void
}

; Function Attrs: noinline noreturn nounwind uwtable
define linkonce_odr hidden void @__clang_call_terminate(ptr noundef %0) #14 comdat {
  %2 = call ptr @__cxa_begin_catch(ptr %0) #3
  call void @_ZSt9terminatev() #24
  unreachable
}

; Function Attrs: mustprogress uwtable
define linkonce_odr hidden void @_ZNSt16_Sp_counted_baseILN9__gnu_cxx12_Lock_policyE2EE15_M_add_ref_copyEv(ptr noundef nonnull align 8 dereferenceable(16) %0) #4 comdat align 2 {
  %2 = alloca ptr, align 8
  store ptr %0, ptr %2, align 8, !tbaa !359
  %3 = load ptr, ptr %2, align 8
  %4 = getelementptr inbounds nuw %"class.std::_Sp_counted_base", ptr %3, i32 0, i32 1
  call void @_ZN9__gnu_cxx21__atomic_add_dispatchEPii(ptr noundef %4, i32 noundef 1)
  ret void
}

; Function Attrs: mustprogress nounwind uwtable
define linkonce_odr hidden void @_ZNSt14__shared_countILN9__gnu_cxx12_Lock_policyE2EEC2ERKS2_(ptr noundef nonnull align 8 dereferenceable(8) %0, ptr noundef nonnull align 8 dereferenceable(8) %1) unnamed_addr #7 comdat align 2 personality ptr @__gxx_personality_v0 {
  %3 = alloca ptr, align 8
  %4 = alloca ptr, align 8
  store ptr %0, ptr %3, align 8, !tbaa !354
  store ptr %1, ptr %4, align 8, !tbaa !354
  %5 = load ptr, ptr %3, align 8
  %6 = getelementptr inbounds nuw %"class.std::__shared_count", ptr %5, i32 0, i32 0
  %7 = load ptr, ptr %4, align 8, !tbaa !354
  %8 = getelementptr inbounds nuw %"class.std::__shared_count", ptr %7, i32 0, i32 0
  %9 = load ptr, ptr %8, align 8, !tbaa !356
  store ptr %9, ptr %6, align 8, !tbaa !356
  %10 = getelementptr inbounds nuw %"class.std::__shared_count", ptr %5, i32 0, i32 0
  %11 = load ptr, ptr %10, align 8, !tbaa !356
  %12 = icmp ne ptr %11, null
  br i1 %12, label %13, label %17

13:                                               ; preds = %2
  %14 = getelementptr inbounds nuw %"class.std::__shared_count", ptr %5, i32 0, i32 0
  %15 = load ptr, ptr %14, align 8, !tbaa !356
  invoke void @_ZNSt16_Sp_counted_baseILN9__gnu_cxx12_Lock_policyE2EE15_M_add_ref_copyEv(ptr noundef nonnull align 8 dereferenceable(16) %15)
          to label %16 unwind label %18

16:                                               ; preds = %13
  br label %17

17:                                               ; preds = %16, %2
  ret void

18:                                               ; preds = %13
  %19 = landingpad { ptr, i32 }
          catch ptr null
  %20 = extractvalue { ptr, i32 } %19, 0
  call void @__clang_call_terminate(ptr %20) #24
  unreachable
}

; Function Attrs: mustprogress nounwind uwtable
define linkonce_odr hidden void @_ZNSt12__shared_ptrIN2cv8ximgproc12segmentation35SelectiveSearchSegmentationStrategyELN9__gnu_cxx12_Lock_policyE2EEC2ERKS6_(ptr noundef nonnull align 8 dereferenceable(16) %0, ptr noundef nonnull align 8 dereferenceable(16) %1) unnamed_addr #7 comdat align 2 {
  %3 = alloca ptr, align 8
  %4 = alloca ptr, align 8
  store ptr %0, ptr %3, align 8, !tbaa !112
  store ptr %1, ptr %4, align 8, !tbaa !112
  %5 = load ptr, ptr %3, align 8
  %6 = getelementptr inbounds nuw %"class.std::__shared_ptr.9", ptr %5, i32 0, i32 0
  %7 = load ptr, ptr %4, align 8, !tbaa !112
  %8 = getelementptr inbounds nuw %"class.std::__shared_ptr.9", ptr %7, i32 0, i32 0
  %9 = load ptr, ptr %8, align 8, !tbaa !562
  store ptr %9, ptr %6, align 8, !tbaa !562
  %10 = getelementptr inbounds nuw %"class.std::__shared_ptr.9", ptr %5, i32 0, i32 1
  %11 = load ptr, ptr %4, align 8, !tbaa !112
  %12 = getelementptr inbounds nuw %"class.std::__shared_ptr.9", ptr %11, i32 0, i32 1
  call void @_ZNSt14__shared_countILN9__gnu_cxx12_Lock_policyE2EEC2ERKS2_(ptr noundef nonnull align 8 dereferenceable(8) %10, ptr noundef nonnull align 8 dereferenceable(8) %12) #3
  ret void
}

; Function Attrs: mustprogress nounwind uwtable
define linkonce_odr hidden void @_ZNSt10shared_ptrIN2cv8ximgproc12segmentation35SelectiveSearchSegmentationStrategyEEC2ERKS4_(ptr noundef nonnull align 8 dereferenceable(16) %0, ptr noundef nonnull align 8 dereferenceable(16) %1) unnamed_addr #7 comdat align 2 {
  %3 = alloca ptr, align 8
  %4 = alloca ptr, align 8
  store ptr %0, ptr %3, align 8, !tbaa !560
  store ptr %1, ptr %4, align 8, !tbaa !560
  %5 = load ptr, ptr %3, align 8
  %6 = load ptr, ptr %4, align 8, !tbaa !560
  call void @_ZNSt12__shared_ptrIN2cv8ximgproc12segmentation35SelectiveSearchSegmentationStrategyELN9__gnu_cxx12_Lock_policyE2EEC2ERKS6_(ptr noundef nonnull align 8 dereferenceable(16) %5, ptr noundef nonnull align 8 dereferenceable(16) %6) #3
  ret void
}

; Function Attrs: inlinehint mustprogress nounwind uwtable
define linkonce_odr hidden void @_ZN2cv3PtrINS_8ximgproc12segmentation35SelectiveSearchSegmentationStrategyEEC2ERKS4_(ptr noundef nonnull align 8 dereferenceable(16) %0, ptr noundef nonnull align 8 dereferenceable(16) %1) unnamed_addr #8 comdat align 2 {
  %3 = alloca ptr, align 8
  %4 = alloca ptr, align 8
  store ptr %0, ptr %3, align 8, !tbaa !80
  store ptr %1, ptr %4, align 8, !tbaa !80
  %5 = load ptr, ptr %3, align 8
  %6 = load ptr, ptr %4, align 8, !tbaa !80
  call void @_ZNSt10shared_ptrIN2cv8ximgproc12segmentation35SelectiveSearchSegmentationStrategyEEC2ERKS4_(ptr noundef nonnull align 8 dereferenceable(16) %5, ptr noundef nonnull align 8 dereferenceable(16) %6) #3
  ret void
}

; Function Attrs: mustprogress nounwind uwtable
define linkonce_odr hidden void @_ZN9__gnu_cxx17__normal_iteratorIPN2cv3PtrINS1_8ximgproc12segmentation35SelectiveSearchSegmentationStrategyEEESt6vectorIS6_SaIS6_EEEC2ERKS7_(ptr noundef nonnull align 8 dereferenceable(8) %0, ptr noundef nonnull align 8 dereferenceable(8) %1) unnamed_addr #7 comdat align 2 {
  %3 = alloca ptr, align 8
  %4 = alloca ptr, align 8
  store ptr %0, ptr %3, align 8, !tbaa !258
  store ptr %1, ptr %4, align 8, !tbaa !740
  %5 = load ptr, ptr %3, align 8
  %6 = getelementptr inbounds nuw %"class.__gnu_cxx::__normal_iterator.92", ptr %5, i32 0, i32 0
  %7 = load ptr, ptr %4, align 8, !tbaa !740
  %8 = load ptr, ptr %7, align 8, !tbaa !80
  store ptr %8, ptr %6, align 8, !tbaa !285
  ret void
}

; Function Attrs: mustprogress nounwind uwtable
define linkonce_odr hidden void @_ZNSt15__new_allocatorIN2cv3PtrINS0_8ximgproc12segmentation35SelectiveSearchSegmentationStrategyEEEE9constructIS5_JRKS5_EEEvPT_DpOT0_(ptr noundef nonnull align 1 dereferenceable(1) %0, ptr noundef %1, ptr noundef nonnull align 8 dereferenceable(16) %2) #7 comdat align 2 {
  %4 = alloca ptr, align 8
  %5 = alloca ptr, align 8
  %6 = alloca ptr, align 8
  store ptr %0, ptr %4, align 8, !tbaa !477
  store ptr %1, ptr %5, align 8, !tbaa !80
  store ptr %2, ptr %6, align 8, !tbaa !80
  %7 = load ptr, ptr %5, align 8, !tbaa !80
  %8 = load ptr, ptr %6, align 8, !tbaa !80
  call void @_ZN2cv3PtrINS_8ximgproc12segmentation35SelectiveSearchSegmentationStrategyEEC2ERKS4_(ptr noundef nonnull align 8 dereferenceable(16) %7, ptr noundef nonnull align 8 dereferenceable(16) %8) #3
  ret void
}

; Function Attrs: mustprogress nounwind uwtable
define linkonce_odr hidden ptr @_ZNSt6vectorIN2cv3PtrINS0_8ximgproc12segmentation35SelectiveSearchSegmentationStrategyEEESaIS5_EE3endEv(ptr noundef nonnull align 8 dereferenceable(24) %0) #7 comdat align 2 {
  %2 = alloca %"class.__gnu_cxx::__normal_iterator.92", align 8
  %3 = alloca ptr, align 8
  store ptr %0, ptr %3, align 8, !tbaa !93
  %4 = load ptr, ptr %3, align 8
  %5 = getelementptr inbounds nuw %"struct.std::_Vector_base.12", ptr %4, i32 0, i32 0
  %6 = getelementptr inbounds nuw %"struct.std::_Vector_base<cv::Ptr<cv::ximgproc::segmentation::SelectiveSearchSegmentationStrategy>, std::allocator<cv::Ptr<cv::ximgproc::segmentation::SelectiveSearchSegmentationStrategy>>>::_Vector_impl_data", ptr %5, i32 0, i32 1
  call void @_ZN9__gnu_cxx17__normal_iteratorIPN2cv3PtrINS1_8ximgproc12segmentation35SelectiveSearchSegmentationStrategyEEESt6vectorIS6_SaIS6_EEEC2ERKS7_(ptr noundef nonnull align 8 dereferenceable(8) %2, ptr noundef nonnull align 8 dereferenceable(8) %6) #3
  %7 = getelementptr inbounds nuw %"class.__gnu_cxx::__normal_iterator.92", ptr %2, i32 0, i32 0
  %8 = load ptr, ptr %7, align 8
  ret ptr %8
}

; Function Attrs: mustprogress nounwind uwtable
define linkonce_odr hidden void @_ZNSt16allocator_traitsISaIN2cv3PtrINS0_8ximgproc12segmentation35SelectiveSearchSegmentationStrategyEEEEE9constructIS5_JRKS5_EEEvRS6_PT_DpOT0_(ptr noundef nonnull align 1 dereferenceable(1) %0, ptr noundef %1, ptr noundef nonnull align 8 dereferenceable(16) %2) #7 comdat align 2 {
  %4 = alloca ptr, align 8
  %5 = alloca ptr, align 8
  %6 = alloca ptr, align 8
  store ptr %0, ptr %4, align 8, !tbaa !472
  store ptr %1, ptr %5, align 8, !tbaa !80
  store ptr %2, ptr %6, align 8, !tbaa !80
  %7 = load ptr, ptr %4, align 8, !tbaa !472
  %8 = load ptr, ptr %5, align 8, !tbaa !80
  %9 = load ptr, ptr %6, align 8, !tbaa !80
  call void @_ZNSt15__new_allocatorIN2cv3PtrINS0_8ximgproc12segmentation35SelectiveSearchSegmentationStrategyEEEE9constructIS5_JRKS5_EEEvPT_DpOT0_(ptr noundef nonnull align 1 dereferenceable(1) %7, ptr noundef %8, ptr noundef nonnull align 8 dereferenceable(16) %9) #3
  ret void
}

; Function Attrs: mustprogress uwtable
define linkonce_odr hidden void @_ZNSt6vectorIN2cv3PtrINS0_8ximgproc12segmentation35SelectiveSearchSegmentationStrategyEEESaIS5_EE9push_backERKS5_(ptr noundef nonnull align 8 dereferenceable(24) %0, ptr noundef nonnull align 8 dereferenceable(16) %1) #4 comdat align 2 {
  %3 = alloca ptr, align 8
  %4 = alloca ptr, align 8
  %5 = alloca %"class.__gnu_cxx::__normal_iterator.92", align 8
  store ptr %0, ptr %3, align 8, !tbaa !93
  store ptr %1, ptr %4, align 8, !tbaa !80
  %6 = load ptr, ptr %3, align 8
  %7 = getelementptr inbounds nuw %"struct.std::_Vector_base.12", ptr %6, i32 0, i32 0
  %8 = getelementptr inbounds nuw %"struct.std::_Vector_base<cv::Ptr<cv::ximgproc::segmentation::SelectiveSearchSegmentationStrategy>, std::allocator<cv::Ptr<cv::ximgproc::segmentation::SelectiveSearchSegmentationStrategy>>>::_Vector_impl_data", ptr %7, i32 0, i32 1
  %9 = load ptr, ptr %8, align 8, !tbaa !95
  %10 = getelementptr inbounds nuw %"struct.std::_Vector_base.12", ptr %6, i32 0, i32 0
  %11 = getelementptr inbounds nuw %"struct.std::_Vector_base<cv::Ptr<cv::ximgproc::segmentation::SelectiveSearchSegmentationStrategy>, std::allocator<cv::Ptr<cv::ximgproc::segmentation::SelectiveSearchSegmentationStrategy>>>::_Vector_impl_data", ptr %10, i32 0, i32 2
  %12 = load ptr, ptr %11, align 8, !tbaa !96
  %13 = icmp ne ptr %9, %12
  br i1 %13, label %14, label %24

14:                                               ; preds = %2
  %15 = getelementptr inbounds nuw %"struct.std::_Vector_base.12", ptr %6, i32 0, i32 0
  %16 = getelementptr inbounds nuw %"struct.std::_Vector_base.12", ptr %6, i32 0, i32 0
  %17 = getelementptr inbounds nuw %"struct.std::_Vector_base<cv::Ptr<cv::ximgproc::segmentation::SelectiveSearchSegmentationStrategy>, std::allocator<cv::Ptr<cv::ximgproc::segmentation::SelectiveSearchSegmentationStrategy>>>::_Vector_impl_data", ptr %16, i32 0, i32 1
  %18 = load ptr, ptr %17, align 8, !tbaa !95
  %19 = load ptr, ptr %4, align 8, !tbaa !80
  call void @_ZNSt16allocator_traitsISaIN2cv3PtrINS0_8ximgproc12segmentation35SelectiveSearchSegmentationStrategyEEEEE9constructIS5_JRKS5_EEEvRS6_PT_DpOT0_(ptr noundef nonnull align 1 dereferenceable(1) %15, ptr noundef %18, ptr noundef nonnull align 8 dereferenceable(16) %19) #3
  %20 = getelementptr inbounds nuw %"struct.std::_Vector_base.12", ptr %6, i32 0, i32 0
  %21 = getelementptr inbounds nuw %"struct.std::_Vector_base<cv::Ptr<cv::ximgproc::segmentation::SelectiveSearchSegmentationStrategy>, std::allocator<cv::Ptr<cv::ximgproc::segmentation::SelectiveSearchSegmentationStrategy>>>::_Vector_impl_data", ptr %20, i32 0, i32 1
  %22 = load ptr, ptr %21, align 8, !tbaa !95
  %23 = getelementptr inbounds nuw %"struct.cv::Ptr.7", ptr %22, i32 1
  store ptr %23, ptr %21, align 8, !tbaa !95
  br label %30

24:                                               ; preds = %2
  %25 = call ptr @_ZNSt6vectorIN2cv3PtrINS0_8ximgproc12segmentation35SelectiveSearchSegmentationStrategyEEESaIS5_EE3endEv(ptr noundef nonnull align 8 dereferenceable(24) %6) #3
  %26 = getelementptr inbounds nuw %"class.__gnu_cxx::__normal_iterator.92", ptr %5, i32 0, i32 0
  store ptr %25, ptr %26, align 8
  %27 = load ptr, ptr %4, align 8, !tbaa !80
  %28 = getelementptr inbounds nuw %"class.__gnu_cxx::__normal_iterator.92", ptr %5, i32 0, i32 0
  %29 = load ptr, ptr %28, align 8
  call void @_ZNSt6vectorIN2cv3PtrINS0_8ximgproc12segmentation35SelectiveSearchSegmentationStrategyEEESaIS5_EE17_M_realloc_insertIJRKS5_EEEvN9__gnu_cxx17__normal_iteratorIPS5_S7_EEDpOT_(ptr noundef nonnull align 8 dereferenceable(24) %6, ptr %29, ptr noundef nonnull align 8 dereferenceable(16) %27)
  br label %30

30:                                               ; preds = %24, %14
  ret void
}

; Function Attrs: mustprogress uwtable
define hidden void @_ZN2cv8ximgproc12segmentation31SelectiveSearchSegmentationImpl11addStrategyENS_3PtrINS1_35SelectiveSearchSegmentationStrategyEEE(ptr noundef nonnull align 8 dereferenceable(208) %0, ptr noundef %1) unnamed_addr #4 align 2 {
  %3 = alloca ptr, align 8
  %4 = alloca ptr, align 8
  store ptr %0, ptr %3, align 8, !tbaa !219
  store ptr %1, ptr %4, align 8, !tbaa !80
  %5 = load ptr, ptr %3, align 8
  %6 = getelementptr inbounds nuw %"class.cv::ximgproc::segmentation::SelectiveSearchSegmentationImpl", ptr %5, i32 0, i32 5
  call void @_ZNSt6vectorIN2cv3PtrINS0_8ximgproc12segmentation35SelectiveSearchSegmentationStrategyEEESaIS5_EE9push_backERKS5_(ptr noundef nonnull align 8 dereferenceable(24) %6, ptr noundef nonnull align 8 dereferenceable(16) %1)
  ret void
}